target datalayout = "e-m:e-p270:32:32-p271:32:32-p272:64:64-i64:64-i128:128-f80:128-n8:16:32:64-S128"
target triple = "x86_64-pc-linux-gnu"

%struct.__mm_loadl_epi64_struct = type { i64 }
%struct.__loadu_si128 = type { <2 x i64> }
%struct.__storeu_si128 = type { <2 x i64> }

; Function Attrs: alwaysinline nounwind uwtable
define internal i32 @_mm_movemask_epi8(<2 x i64> noundef %0) #3 {
  %2 = alloca <2 x i64>, align 16
  store <2 x i64> %0, ptr %2, align 16, !tbaa !11
  %3 = load <2 x i64>, ptr %2, align 16, !tbaa !11
  %4 = bitcast <2 x i64> %3 to <16 x i8>
  %5 = call i32 @llvm.x86.sse2.pmovmskb.128(<16 x i8> %4)
  ret i32 %5
}

; Function Attrs: alwaysinline nounwind uwtable
define internal <2 x i64> @_mm_cmpeq_epi8(<2 x i64> noundef %0, <2 x i64> noundef %1) #3 {
  %3 = alloca <2 x i64>, align 16
  %4 = alloca <2 x i64>, align 16
  store <2 x i64> %0, ptr %3, align 16, !tbaa !11
  store <2 x i64> %1, ptr %4, align 16, !tbaa !11
  %5 = load <2 x i64>, ptr %3, align 16, !tbaa !11
  %6 = bitcast <2 x i64> %5 to <16 x i8>
  %7 = load <2 x i64>, ptr %4, align 16, !tbaa !11
  %8 = bitcast <2 x i64> %7 to <16 x i8>
  %9 = icmp eq <16 x i8> %6, %8
  %10 = sext <16 x i1> %9 to <16 x i8>
  %11 = bitcast <16 x i8> %10 to <2 x i64>
  ret <2 x i64> %11
}

; Function Attrs: alwaysinline nounwind uwtable
define internal void @_mm_storeu_si128(ptr noundef %0, <2 x i64> noundef %1) #3 {
  %3 = alloca ptr, align 8
  %4 = alloca <2 x i64>, align 16
  store ptr %0, ptr %3, align 8, !tbaa !3
  store <2 x i64> %1, ptr %4, align 16, !tbaa !11
  %5 = load <2 x i64>, ptr %4, align 16, !tbaa !11
  %6 = load ptr, ptr %3, align 8, !tbaa !3
  %7 = getelementptr inbounds nuw %struct.__storeu_si128, ptr %6, i32 0, i32 0
  store <2 x i64> %5, ptr %7, align 1, !tbaa !11
  ret void
}

; Function Attrs: alwaysinline nounwind uwtable
define internal <2 x i64> @_mm_or_si128(<2 x i64> noundef %0, <2 x i64> noundef %1) #3 {
  %3 = alloca <2 x i64>, align 16
  %4 = alloca <2 x i64>, align 16
  store <2 x i64> %0, ptr %3, align 16, !tbaa !11
  store <2 x i64> %1, ptr %4, align 16, !tbaa !11
  %5 = load <2 x i64>, ptr %3, align 16, !tbaa !11
  %6 = load <2 x i64>, ptr %4, align 16, !tbaa !11
  %7 = or <2 x i64> %5, %6
  ret <2 x i64> %7
}

; Function Attrs: alwaysinline nounwind uwtable
define internal <2 x i64> @_mm_and_si128(<2 x i64> noundef %0, <2 x i64> noundef %1) #3 {
  %3 = alloca <2 x i64>, align 16
  %4 = alloca <2 x i64>, align 16
  store <2 x i64> %0, ptr %3, align 16, !tbaa !11
  store <2 x i64> %1, ptr %4, align 16, !tbaa !11
  %5 = load <2 x i64>, ptr %3, align 16, !tbaa !11
  %6 = load <2 x i64>, ptr %4, align 16, !tbaa !11
  %7 = and <2 x i64> %5, %6
  ret <2 x i64> %7
}

; Function Attrs: alwaysinline nounwind uwtable
define internal <2 x i64> @_mm_loadu_si128(ptr noundef %0) #3 {
  %2 = alloca ptr, align 8
  store ptr %0, ptr %2, align 8, !tbaa !3
  %3 = load ptr, ptr %2, align 8, !tbaa !3
  %4 = getelementptr inbounds nuw %struct.__loadu_si128, ptr %3, i32 0, i32 0
  %5 = load <2 x i64>, ptr %4, align 1, !tbaa !11
  ret <2 x i64> %5
}

; Function Attrs: alwaysinline nounwind uwtable
define internal <2 x i64> @_mm_unpackhi_epi16(<2 x i64> noundef %0, <2 x i64> noundef %1) #3 {
  %3 = alloca <2 x i64>, align 16
  %4 = alloca <2 x i64>, align 16
  store <2 x i64> %0, ptr %3, align 16, !tbaa !11
  store <2 x i64> %1, ptr %4, align 16, !tbaa !11
  %5 = load <2 x i64>, ptr %3, align 16, !tbaa !11
  %6 = bitcast <2 x i64> %5 to <8 x i16>
  %7 = load <2 x i64>, ptr %4, align 16, !tbaa !11
  %8 = bitcast <2 x i64> %7 to <8 x i16>
  %9 = shufflevector <8 x i16> %6, <8 x i16> %8, <8 x i32> <i32 4, i32 12, i32 5, i32 13, i32 6, i32 14, i32 7, i32 15>
  %10 = bitcast <8 x i16> %9 to <2 x i64>
  ret <2 x i64> %10
}

; Function Attrs: alwaysinline nounwind uwtable
define internal <2 x i64> @_mm_unpacklo_epi16(<2 x i64> noundef %0, <2 x i64> noundef %1) #3 {
  %3 = alloca <2 x i64>, align 16
  %4 = alloca <2 x i64>, align 16
  store <2 x i64> %0, ptr %3, align 16, !tbaa !11
  store <2 x i64> %1, ptr %4, align 16, !tbaa !11
  %5 = load <2 x i64>, ptr %3, align 16, !tbaa !11
  %6 = bitcast <2 x i64> %5 to <8 x i16>
  %7 = load <2 x i64>, ptr %4, align 16, !tbaa !11
  %8 = bitcast <2 x i64> %7 to <8 x i16>
  %9 = shufflevector <8 x i16> %6, <8 x i16> %8, <8 x i32> <i32 0, i32 8, i32 1, i32 9, i32 2, i32 10, i32 3, i32 11>
  %10 = bitcast <8 x i16> %9 to <2 x i64>
  ret <2 x i64> %10
}

; Function Attrs: alwaysinline nounwind uwtable
define internal <2 x i64> @_mm_unpacklo_epi8(<2 x i64> noundef %0, <2 x i64> noundef %1) #3 {
  %3 = alloca <2 x i64>, align 16
  %4 = alloca <2 x i64>, align 16
  store <2 x i64> %0, ptr %3, align 16, !tbaa !11
  store <2 x i64> %1, ptr %4, align 16, !tbaa !11
  %5 = load <2 x i64>, ptr %3, align 16, !tbaa !11
  %6 = bitcast <2 x i64> %5 to <16 x i8>
  %7 = load <2 x i64>, ptr %4, align 16, !tbaa !11
  %8 = bitcast <2 x i64> %7 to <16 x i8>
  %9 = shufflevector <16 x i8> %6, <16 x i8> %8, <16 x i32> <i32 0, i32 16, i32 1, i32 17, i32 2, i32 18, i32 3, i32 19, i32 4, i32 20, i32 5, i32 21, i32 6, i32 22, i32 7, i32 23>
  %10 = bitcast <16 x i8> %9 to <2 x i64>
  ret <2 x i64> %10
}

; Function Attrs: alwaysinline nounwind uwtable
define internal <2 x i64> @_mm_loadl_epi64(ptr noundef %0) #3 {
  %2 = alloca ptr, align 8
  %3 = alloca <2 x i64>, align 16
  store ptr %0, ptr %2, align 8, !tbaa !3
  %4 = load ptr, ptr %2, align 8, !tbaa !3
  %5 = getelementptr inbounds nuw %struct.__mm_loadl_epi64_struct, ptr %4, i32 0, i32 0
  %6 = load i64, ptr %5, align 1, !tbaa !11
  %7 = insertelement <2 x i64> poison, i64 %6, i32 0
  %8 = insertelement <2 x i64> %7, i64 0, i32 1
  store <2 x i64> %8, ptr %3, align 16, !tbaa !11
  %9 = load <2 x i64>, ptr %3, align 16, !tbaa !11
  ret <2 x i64> %9
}

; Function Attrs: alwaysinline nounwind uwtable
define internal <2 x i64> @_mm_set_epi32(i32 noundef %0, i32 noundef %1, i32 noundef %2, i32 noundef %3) #3 {
  %5 = alloca i32, align 4
  %6 = alloca i32, align 4
  %7 = alloca i32, align 4
  %8 = alloca i32, align 4
  %9 = alloca <4 x i32>, align 16
  store i32 %0, ptr %5, align 4, !tbaa !9
  store i32 %1, ptr %6, align 4, !tbaa !9
  store i32 %2, ptr %7, align 4, !tbaa !9
  store i32 %3, ptr %8, align 4, !tbaa !9
  %10 = load i32, ptr %8, align 4, !tbaa !9
  %11 = insertelement <4 x i32> poison, i32 %10, i32 0
  %12 = load i32, ptr %7, align 4, !tbaa !9
  %13 = insertelement <4 x i32> %11, i32 %12, i32 1
  %14 = load i32, ptr %6, align 4, !tbaa !9
  %15 = insertelement <4 x i32> %13, i32 %14, i32 2
  %16 = load i32, ptr %5, align 4, !tbaa !9
  %17 = insertelement <4 x i32> %15, i32 %16, i32 3
  store <4 x i32> %17, ptr %9, align 16, !tbaa !11
  %18 = load <4 x i32>, ptr %9, align 16, !tbaa !11
  %19 = bitcast <4 x i32> %18 to <2 x i64>
  ret <2 x i64> %19
}

; Function Attrs: alwaysinline nounwind uwtable
define internal <2 x i64> @_mm_set1_epi32(i32 noundef %0) #3 {
  %2 = alloca i32, align 4
  store i32 %0, ptr %2, align 4, !tbaa !9
  %3 = load i32, ptr %2, align 4, !tbaa !9
  %4 = load i32, ptr %2, align 4, !tbaa !9
  %5 = load i32, ptr %2, align 4, !tbaa !9
  %6 = load i32, ptr %2, align 4, !tbaa !9
  %7 = call <2 x i64> @_mm_set_epi32(i32 noundef %3, i32 noundef %4, i32 noundef %5, i32 noundef %6)
  ret <2 x i64> %7
}

; Function Attrs: alwaysinline nounwind uwtable
define internal <2 x i64> @_mm_setzero_si128() #3 {
  %1 = alloca <2 x i64>, align 16
  store <2 x i64> zeroinitializer, ptr %1, align 16, !tbaa !11
  %2 = load <2 x i64>, ptr %1, align 16, !tbaa !11
  ret <2 x i64> %2
}

; Function Attrs: nounwind uwtable
define internal i32 @DispatchAlpha_SSE2(ptr noalias noundef %0, i32 noundef %1, i32 noundef %2, i32 noundef %3, ptr noalias noundef %4, i32 noundef %5) #1 {
  %7 = alloca ptr, align 8
  %8 = alloca i32, align 4
  %9 = alloca i32, align 4
  %10 = alloca i32, align 4
  %11 = alloca ptr, align 8
  %12 = alloca i32, align 4
  %13 = alloca i32, align 4
  %14 = alloca i32, align 4
  %15 = alloca i32, align 4
  %16 = alloca <2 x i64>, align 16
  %17 = alloca <2 x i64>, align 16
  %18 = alloca <2 x i64>, align 16
  %19 = alloca <2 x i64>, align 16
  %20 = alloca i32, align 4
  %21 = alloca ptr, align 8
  %22 = alloca <2 x i64>, align 16
  %23 = alloca <2 x i64>, align 16
  %24 = alloca <2 x i64>, align 16
  %25 = alloca <2 x i64>, align 16
  %26 = alloca <2 x i64>, align 16
  %27 = alloca <2 x i64>, align 16
  %28 = alloca <2 x i64>, align 16
  %29 = alloca <2 x i64>, align 16
  %30 = alloca <2 x i64>, align 16
  %31 = alloca <2 x i64>, align 16
  %32 = alloca i32, align 4
  store ptr %0, ptr %7, align 8, !tbaa !14
  store i32 %1, ptr %8, align 4, !tbaa !9
  store i32 %2, ptr %9, align 4, !tbaa !9
  store i32 %3, ptr %10, align 4, !tbaa !9
  store ptr %4, ptr %11, align 8, !tbaa !14
  store i32 %5, ptr %12, align 4, !tbaa !9
  call void @llvm.lifetime.start.p0(i64 4, ptr %13) #6
  store i32 255, ptr %13, align 4, !tbaa !9
  call void @llvm.lifetime.start.p0(i64 4, ptr %14) #6
  call void @llvm.lifetime.start.p0(i64 4, ptr %15) #6
  call void @llvm.lifetime.start.p0(i64 16, ptr %16) #6
  %33 = call <2 x i64> @_mm_setzero_si128()
  store <2 x i64> %33, ptr %16, align 16, !tbaa !11
  call void @llvm.lifetime.start.p0(i64 16, ptr %17) #6
  %34 = call <2 x i64> @_mm_set1_epi32(i32 noundef -256)
  store <2 x i64> %34, ptr %17, align 16, !tbaa !11
  call void @llvm.lifetime.start.p0(i64 16, ptr %18) #6
  %35 = call <2 x i64> @_mm_set_epi32(i32 noundef 0, i32 noundef 0, i32 noundef -1, i32 noundef -1)
  store <2 x i64> %35, ptr %18, align 16, !tbaa !11
  call void @llvm.lifetime.start.p0(i64 16, ptr %19) #6
  %36 = load <2 x i64>, ptr %18, align 16, !tbaa !11
  store <2 x i64> %36, ptr %19, align 16, !tbaa !11
  call void @llvm.lifetime.start.p0(i64 4, ptr %20) #6
  %37 = load i32, ptr %9, align 4, !tbaa !9
  %38 = sub nsw i32 %37, 1
  %39 = and i32 %38, -8
  store i32 %39, ptr %20, align 4, !tbaa !9
  store i32 0, ptr %15, align 4, !tbaa !9
  br label %40

40:                                               ; preds = %131, %6
  %41 = load i32, ptr %15, align 4, !tbaa !9
  %42 = load i32, ptr %10, align 4, !tbaa !9
  %43 = icmp slt i32 %41, %42
  br i1 %43, label %44, label %134

44:                                               ; preds = %40
  call void @llvm.lifetime.start.p0(i64 8, ptr %21) #6
  %45 = load ptr, ptr %11, align 8, !tbaa !14
  store ptr %45, ptr %21, align 8, !tbaa !3
  store i32 0, ptr %14, align 4, !tbaa !9
  br label %46

46:                                               ; preds = %94, %44
  %47 = load i32, ptr %14, align 4, !tbaa !9
  %48 = load i32, ptr %20, align 4, !tbaa !9
  %49 = icmp slt i32 %47, %48
  br i1 %49, label %50, label %97

50:                                               ; preds = %46
  call void @llvm.lifetime.start.p0(i64 16, ptr %22) #6
  %51 = load ptr, ptr %7, align 8, !tbaa !14
  %52 = load i32, ptr %14, align 4, !tbaa !9
  %53 = sext i32 %52 to i64
  %54 = getelementptr inbounds i8, ptr %51, i64 %53
  %55 = call <2 x i64> @_mm_loadl_epi64(ptr noundef %54)
  store <2 x i64> %55, ptr %22, align 16, !tbaa !11
  call void @llvm.lifetime.start.p0(i64 16, ptr %23) #6
  %56 = load <2 x i64>, ptr %22, align 16, !tbaa !11
  %57 = load <2 x i64>, ptr %16, align 16, !tbaa !11
  %58 = call <2 x i64> @_mm_unpacklo_epi8(<2 x i64> noundef %56, <2 x i64> noundef %57)
  store <2 x i64> %58, ptr %23, align 16, !tbaa !11
  call void @llvm.lifetime.start.p0(i64 16, ptr %24) #6
  %59 = load <2 x i64>, ptr %23, align 16, !tbaa !11
  %60 = load <2 x i64>, ptr %16, align 16, !tbaa !11
  %61 = call <2 x i64> @_mm_unpacklo_epi16(<2 x i64> noundef %59, <2 x i64> noundef %60)
  store <2 x i64> %61, ptr %24, align 16, !tbaa !11
  call void @llvm.lifetime.start.p0(i64 16, ptr %25) #6
  %62 = load <2 x i64>, ptr %23, align 16, !tbaa !11
  %63 = load <2 x i64>, ptr %16, align 16, !tbaa !11
  %64 = call <2 x i64> @_mm_unpackhi_epi16(<2 x i64> noundef %62, <2 x i64> noundef %63)
  store <2 x i64> %64, ptr %25, align 16, !tbaa !11
  call void @llvm.lifetime.start.p0(i64 16, ptr %26) #6
  %65 = load ptr, ptr %21, align 8, !tbaa !3
  %66 = getelementptr inbounds <2 x i64>, ptr %65, i64 0
  %67 = call <2 x i64> @_mm_loadu_si128(ptr noundef %66)
  store <2 x i64> %67, ptr %26, align 16, !tbaa !11
  call void @llvm.lifetime.start.p0(i64 16, ptr %27) #6
  %68 = load ptr, ptr %21, align 8, !tbaa !3
  %69 = getelementptr inbounds <2 x i64>, ptr %68, i64 1
  %70 = call <2 x i64> @_mm_loadu_si128(ptr noundef %69)
  store <2 x i64> %70, ptr %27, align 16, !tbaa !11
  call void @llvm.lifetime.start.p0(i64 16, ptr %28) #6
  %71 = load <2 x i64>, ptr %26, align 16, !tbaa !11
  %72 = load <2 x i64>, ptr %17, align 16, !tbaa !11
  %73 = call <2 x i64> @_mm_and_si128(<2 x i64> noundef %71, <2 x i64> noundef %72)
  store <2 x i64> %73, ptr %28, align 16, !tbaa !11
  call void @llvm.lifetime.start.p0(i64 16, ptr %29) #6
  %74 = load <2 x i64>, ptr %27, align 16, !tbaa !11
  %75 = load <2 x i64>, ptr %17, align 16, !tbaa !11
  %76 = call <2 x i64> @_mm_and_si128(<2 x i64> noundef %74, <2 x i64> noundef %75)
  store <2 x i64> %76, ptr %29, align 16, !tbaa !11
  call void @llvm.lifetime.start.p0(i64 16, ptr %30) #6
  %77 = load <2 x i64>, ptr %28, align 16, !tbaa !11
  %78 = load <2 x i64>, ptr %24, align 16, !tbaa !11
  %79 = call <2 x i64> @_mm_or_si128(<2 x i64> noundef %77, <2 x i64> noundef %78)
  store <2 x i64> %79, ptr %30, align 16, !tbaa !11
  call void @llvm.lifetime.start.p0(i64 16, ptr %31) #6
  %80 = load <2 x i64>, ptr %29, align 16, !tbaa !11
  %81 = load <2 x i64>, ptr %25, align 16, !tbaa !11
  %82 = call <2 x i64> @_mm_or_si128(<2 x i64> noundef %80, <2 x i64> noundef %81)
  store <2 x i64> %82, ptr %31, align 16, !tbaa !11
  %83 = load ptr, ptr %21, align 8, !tbaa !3
  %84 = getelementptr inbounds <2 x i64>, ptr %83, i64 0
  %85 = load <2 x i64>, ptr %30, align 16, !tbaa !11
  call void @_mm_storeu_si128(ptr noundef %84, <2 x i64> noundef %85)
  %86 = load ptr, ptr %21, align 8, !tbaa !3
  %87 = getelementptr inbounds <2 x i64>, ptr %86, i64 1
  %88 = load <2 x i64>, ptr %31, align 16, !tbaa !11
  call void @_mm_storeu_si128(ptr noundef %87, <2 x i64> noundef %88)
  %89 = load <2 x i64>, ptr %19, align 16, !tbaa !11
  %90 = load <2 x i64>, ptr %22, align 16, !tbaa !11
  %91 = call <2 x i64> @_mm_and_si128(<2 x i64> noundef %89, <2 x i64> noundef %90)
  store <2 x i64> %91, ptr %19, align 16, !tbaa !11
  %92 = load ptr, ptr %21, align 8, !tbaa !3
  %93 = getelementptr inbounds <2 x i64>, ptr %92, i64 2
  store ptr %93, ptr %21, align 8, !tbaa !3
  call void @llvm.lifetime.end.p0(i64 16, ptr %31) #6
  call void @llvm.lifetime.end.p0(i64 16, ptr %30) #6
  call void @llvm.lifetime.end.p0(i64 16, ptr %29) #6
  call void @llvm.lifetime.end.p0(i64 16, ptr %28) #6
  call void @llvm.lifetime.end.p0(i64 16, ptr %27) #6
  call void @llvm.lifetime.end.p0(i64 16, ptr %26) #6
  call void @llvm.lifetime.end.p0(i64 16, ptr %25) #6
  call void @llvm.lifetime.end.p0(i64 16, ptr %24) #6
  call void @llvm.lifetime.end.p0(i64 16, ptr %23) #6
  call void @llvm.lifetime.end.p0(i64 16, ptr %22) #6
  br label %94

94:                                               ; preds = %50
  %95 = load i32, ptr %14, align 4, !tbaa !9
  %96 = add nsw i32 %95, 8
  store i32 %96, ptr %14, align 4, !tbaa !9
  br label %46, !llvm.loop !21

97:                                               ; preds = %46
  br label %98

98:                                               ; preds = %119, %97
  %99 = load i32, ptr %14, align 4, !tbaa !9
  %100 = load i32, ptr %9, align 4, !tbaa !9
  %101 = icmp slt i32 %99, %100
  br i1 %101, label %102, label %122

102:                                              ; preds = %98
  call void @llvm.lifetime.start.p0(i64 4, ptr %32) #6
  %103 = load ptr, ptr %7, align 8, !tbaa !14
  %104 = load i32, ptr %14, align 4, !tbaa !9
  %105 = sext i32 %104 to i64
  %106 = getelementptr inbounds i8, ptr %103, i64 %105
  %107 = load i8, ptr %106, align 1, !tbaa !11
  %108 = zext i8 %107 to i32
  store i32 %108, ptr %32, align 4, !tbaa !9
  %109 = load i32, ptr %32, align 4, !tbaa !9
  %110 = trunc i32 %109 to i8
  %111 = load ptr, ptr %11, align 8, !tbaa !14
  %112 = load i32, ptr %14, align 4, !tbaa !9
  %113 = mul nsw i32 4, %112
  %114 = sext i32 %113 to i64
  %115 = getelementptr inbounds i8, ptr %111, i64 %114
  store i8 %110, ptr %115, align 1, !tbaa !11
  %116 = load i32, ptr %32, align 4, !tbaa !9
  %117 = load i32, ptr %13, align 4, !tbaa !9
  %118 = and i32 %117, %116
  store i32 %118, ptr %13, align 4, !tbaa !9
  call void @llvm.lifetime.end.p0(i64 4, ptr %32) #6
  br label %119

119:                                              ; preds = %102
  %120 = load i32, ptr %14, align 4, !tbaa !9
  %121 = add nsw i32 %120, 1
  store i32 %121, ptr %14, align 4, !tbaa !9
  br label %98, !llvm.loop !22

122:                                              ; preds = %98
  %123 = load i32, ptr %8, align 4, !tbaa !9
  %124 = load ptr, ptr %7, align 8, !tbaa !14
  %125 = sext i32 %123 to i64
  %126 = getelementptr inbounds i8, ptr %124, i64 %125
  store ptr %126, ptr %7, align 8, !tbaa !14
  %127 = load i32, ptr %12, align 4, !tbaa !9
  %128 = load ptr, ptr %11, align 8, !tbaa !14
  %129 = sext i32 %127 to i64
  %130 = getelementptr inbounds i8, ptr %128, i64 %129
  store ptr %130, ptr %11, align 8, !tbaa !14
  call void @llvm.lifetime.end.p0(i64 8, ptr %21) #6
  br label %131

131:                                              ; preds = %122
  %132 = load i32, ptr %15, align 4, !tbaa !9
  %133 = add nsw i32 %132, 1
  store i32 %133, ptr %15, align 4, !tbaa !9
  br label %40, !llvm.loop !23

134:                                              ; preds = %40
  %135 = load <2 x i64>, ptr %19, align 16, !tbaa !11
  %136 = load <2 x i64>, ptr %18, align 16, !tbaa !11
  %137 = call <2 x i64> @_mm_cmpeq_epi8(<2 x i64> noundef %135, <2 x i64> noundef %136)
  %138 = call i32 @_mm_movemask_epi8(<2 x i64> noundef %137)
  %139 = load i32, ptr %13, align 4, !tbaa !9
  %140 = and i32 %139, %138
  store i32 %140, ptr %13, align 4, !tbaa !9
  %141 = load i32, ptr %13, align 4, !tbaa !9
  %142 = icmp ne i32 %141, 255
  %143 = zext i1 %142 to i32
  call void @llvm.lifetime.end.p0(i64 4, ptr %20) #6
  call void @llvm.lifetime.end.p0(i64 16, ptr %19) #6
  call void @llvm.lifetime.end.p0(i64 16, ptr %18) #6
  call void @llvm.lifetime.end.p0(i64 16, ptr %17) #6
  call void @llvm.lifetime.end.p0(i64 16, ptr %16) #6
  call void @llvm.lifetime.end.p0(i64 4, ptr %15) #6
  call void @llvm.lifetime.end.p0(i64 4, ptr %14) #6
  call void @llvm.lifetime.end.p0(i64 4, ptr %13) #6
  ret i32 %143
}