; Function Attrs: nofree norecurse nosync nounwind memory(argmem: readwrite) uwtable
define internal range(i32 0, 2) i32 @DispatchAlpha_SSE2(ptr noalias noundef readonly captures(none) %0, i32 noundef %1, i32 noundef %2, i32 noundef %3, ptr noalias noundef captures(none) %4, i32 noundef %5) #2 {
  %7 = add nsw i32 %2, -1
  %8 = and i32 %7, -8
  %9 = icmp sgt i32 %3, 0
  br i1 %9, label %.preheader59.lr.ph, label %._crit_edge73

.preheader59.lr.ph:                               ; preds = %6
  %10 = icmp sgt i32 %2, 8
  %11 = sext i32 %1 to i64
  %12 = sext i32 %5 to i64
  br i1 %10, label %.preheader59.us.preheader, label %.preheader59.lr.ph.split

.preheader59.us.preheader:                        ; preds = %.preheader59.lr.ph
  %13 = sext i32 %8 to i64
  %14 = zext nneg i32 %2 to i64
  br label %.preheader59.us

.preheader59.us:                                  ; preds = %.preheader59.us.preheader, %._crit_edge.us
  %.072.us = phi ptr [ %15, %._crit_edge.us ], [ %0, %.preheader59.us.preheader ]
  %.05171.us = phi ptr [ %16, %._crit_edge.us ], [ %4, %.preheader59.us.preheader ]
  %.05270.us = phi i32 [ %.1.lcssa.us, %._crit_edge.us ], [ 255, %.preheader59.us.preheader ]
  %.05569.us = phi i32 [ %17, %._crit_edge.us ], [ 0, %.preheader59.us.preheader ]
  %.05668.us = phi <2 x i64> [ %43, %._crit_edge.us ], [ <i64 -1, i64 0>, %.preheader59.us.preheader ]
  br label %25

._crit_edge.us:                                   ; preds = %.lr.ph66.us, %..preheader_crit_edge.us
  %.1.lcssa.us = phi i32 [ %.05270.us, %..preheader_crit_edge.us ], [ %23, %.lr.ph66.us ]
  %15 = getelementptr inbounds i8, ptr %.072.us, i64 %11
  %16 = getelementptr inbounds i8, ptr %.05171.us, i64 %12
  %17 = add nuw nsw i32 %.05569.us, 1
  %exitcond107.not = icmp eq i32 %17, %3
  br i1 %exitcond107.not, label %._crit_edge73.loopexit, label %.preheader59.us, !llvm.loop !15

.lr.ph66.us:                                      ; preds = %..preheader_crit_edge.us, %.lr.ph66.us
  %indvars.iv104 = phi i64 [ %indvars.iv.next105, %.lr.ph66.us ], [ %indvars.iv102, %..preheader_crit_edge.us ]
  %.165.us = phi i32 [ %23, %.lr.ph66.us ], [ %.05270.us, %..preheader_crit_edge.us ]
  %18 = getelementptr inbounds nuw i8, ptr %.072.us, i64 %indvars.iv104
  %19 = load i8, ptr %18, align 1, !tbaa !7
  %20 = zext i8 %19 to i32
  %21 = shl nsw i64 %indvars.iv104, 2
  %22 = getelementptr inbounds nuw i8, ptr %.05171.us, i64 %21
  store i8 %19, ptr %22, align 1, !tbaa !7
  %23 = and i32 %.165.us, %20
  %indvars.iv.next105 = add nuw nsw i64 %indvars.iv104, 1
  %24 = icmp samesign ult i64 %indvars.iv.next105, %14
  br i1 %24, label %.lr.ph66.us, label %._crit_edge.us, !llvm.loop !16

25:                                               ; preds = %.preheader59.us, %25
  %indvars.iv102 = phi i64 [ 8, %.preheader59.us ], [ %indvars.iv.next103, %25 ]
  %indvars.iv99 = phi i64 [ 0, %.preheader59.us ], [ %indvars.iv.next100, %25 ]
  %.15761.us = phi <2 x i64> [ %.05668.us, %.preheader59.us ], [ %43, %25 ]
  %.05860.us = phi ptr [ %.05171.us, %.preheader59.us ], [ %44, %25 ]
  %26 = getelementptr inbounds nuw i8, ptr %.072.us, i64 %indvars.iv99
  %27 = load i64, ptr %26, align 1, !tbaa !7
  %28 = insertelement <2 x i64> <i64 poison, i64 0>, i64 %27, i64 0
  %29 = bitcast <2 x i64> %28 to <16 x i8>
  %30 = shufflevector <16 x i8> %29, <16 x i8> <i8 0, i8 0, i8 0, i8 0, i8 0, i8 0, i8 0, i8 0, i8 poison, i8 poison, i8 poison, i8 poison, i8 poison, i8 poison, i8 poison, i8 poison>, <16 x i32> <i32 0, i32 16, i32 1, i32 17, i32 2, i32 18, i32 3, i32 19, i32 4, i32 20, i32 5, i32 21, i32 6, i32 22, i32 7, i32 23>
  %31 = bitcast <16 x i8> %30 to <8 x i16>
  %32 = shufflevector <8 x i16> %31, <8 x i16> <i16 0, i16 0, i16 0, i16 0, i16 poison, i16 poison, i16 poison, i16 poison>, <8 x i32> <i32 0, i32 8, i32 1, i32 9, i32 2, i32 10, i32 3, i32 11>
  %33 = bitcast <8 x i16> %32 to <2 x i64>
  %34 = shufflevector <8 x i16> %31, <8 x i16> <i16 poison, i16 poison, i16 poison, i16 poison, i16 0, i16 0, i16 0, i16 0>, <8 x i32> <i32 4, i32 12, i32 5, i32 13, i32 6, i32 14, i32 7, i32 15>
  %35 = bitcast <8 x i16> %34 to <2 x i64>
  %36 = load <2 x i64>, ptr %.05860.us, align 1, !tbaa !7
  %37 = getelementptr inbounds nuw i8, ptr %.05860.us, i64 16
  %38 = load <2 x i64>, ptr %37, align 1, !tbaa !7
  %39 = and <2 x i64> %36, splat (i64 -1095216660736)
  %40 = and <2 x i64> %38, splat (i64 -1095216660736)
  %41 = or disjoint <2 x i64> %39, %33
  %42 = or disjoint <2 x i64> %40, %35
  store <2 x i64> %41, ptr %.05860.us, align 1, !tbaa !7
  store <2 x i64> %42, ptr %37, align 1, !tbaa !7
  %43 = and <2 x i64> %28, %.15761.us
  %44 = getelementptr inbounds nuw i8, ptr %.05860.us, i64 32
  %indvars.iv.next100 = add nuw nsw i64 %indvars.iv99, 8
  %45 = icmp slt i64 %indvars.iv.next100, %13
  %indvars.iv.next103 = add nuw nsw i64 %indvars.iv102, 8
  br i1 %45, label %25, label %..preheader_crit_edge.us, !llvm.loop !17

..preheader_crit_edge.us:                         ; preds = %25
  %46 = trunc nuw nsw i64 %indvars.iv.next100 to i32
  %47 = icmp sgt i32 %2, %46
  br i1 %47, label %.lr.ph66.us, label %._crit_edge.us

.preheader59.lr.ph.split:                         ; preds = %.preheader59.lr.ph
  %48 = icmp sgt i32 %2, 0
  br i1 %48, label %.preheader59.us77.preheader, label %._crit_edge73

.preheader59.us77.preheader:                      ; preds = %.preheader59.lr.ph.split
  %wide.trip.count = zext nneg i32 %2 to i64
  br label %.preheader59.us77

.preheader59.us77:                                ; preds = %.preheader59.us77.preheader, %._crit_edge.us86
  %.072.us78 = phi ptr [ %56, %._crit_edge.us86 ], [ %0, %.preheader59.us77.preheader ]
  %.05171.us79 = phi ptr [ %57, %._crit_edge.us86 ], [ %4, %.preheader59.us77.preheader ]
  %.05270.us80 = phi i32 [ %55, %._crit_edge.us86 ], [ 255, %.preheader59.us77.preheader ]
  %.05569.us81 = phi i32 [ %58, %._crit_edge.us86 ], [ 0, %.preheader59.us77.preheader ]
  br label %49

49:                                               ; preds = %.preheader59.us77, %49
  %indvars.iv = phi i64 [ 0, %.preheader59.us77 ], [ %indvars.iv.next, %49 ]
  %.165.us83 = phi i32 [ %.05270.us80, %.preheader59.us77 ], [ %55, %49 ]
  %50 = getelementptr inbounds nuw i8, ptr %.072.us78, i64 %indvars.iv
  %51 = load i8, ptr %50, align 1, !tbaa !7
  %52 = zext i8 %51 to i32
  %53 = shl nsw i64 %indvars.iv, 2
  %54 = getelementptr inbounds nuw i8, ptr %.05171.us79, i64 %53
  store i8 %51, ptr %54, align 1, !tbaa !7
  %55 = and i32 %.165.us83, %52
  %indvars.iv.next = add nuw nsw i64 %indvars.iv, 1
  %exitcond.not = icmp eq i64 %indvars.iv.next, %wide.trip.count
  br i1 %exitcond.not, label %._crit_edge.us86, label %49, !llvm.loop !16

._crit_edge.us86:                                 ; preds = %49
  %56 = getelementptr inbounds i8, ptr %.072.us78, i64 %11
  %57 = getelementptr inbounds i8, ptr %.05171.us79, i64 %12
  %58 = add nuw nsw i32 %.05569.us81, 1
  %exitcond98.not = icmp eq i32 %58, %3
  br i1 %exitcond98.not, label %._crit_edge73, label %.preheader59.us77, !llvm.loop !15

._crit_edge73.loopexit:                           ; preds = %._crit_edge.us
  %59 = bitcast <2 x i64> %43 to <16 x i8>
  %60 = icmp eq <16 x i8> %59, <i8 -1, i8 -1, i8 -1, i8 -1, i8 -1, i8 -1, i8 -1, i8 -1, i8 0, i8 0, i8 0, i8 0, i8 0, i8 0, i8 0, i8 0>
  %61 = bitcast <16 x i1> %60 to i16
  %62 = zext i16 %61 to i32
  br label %._crit_edge73

._crit_edge73:                                    ; preds = %._crit_edge.us86, %.preheader59.lr.ph.split, %._crit_edge73.loopexit, %6
  %.056.lcssa = phi i32 [ 65535, %6 ], [ %62, %._crit_edge73.loopexit ], [ 65535, %.preheader59.lr.ph.split ], [ 65535, %._crit_edge.us86 ]
  %.052.lcssa = phi i32 [ 255, %6 ], [ %.1.lcssa.us, %._crit_edge73.loopexit ], [ 255, %.preheader59.lr.ph.split ], [ %55, %._crit_edge.us86 ]
  %63 = and i32 %.052.lcssa, %.056.lcssa
  %64 = icmp ne i32 %63, 255
  %65 = zext i1 %64 to i32
  ret i32 %65
}